; Function Attrs: nounwind uwtable
define hidden void @zim_SQLite3Result_reset(ptr noundef readonly captures(none) %0, ptr noundef writeonly captures(none) %1) #0 {
  %3 = getelementptr inbounds nuw i8, ptr %0, i64 32
  %4 = load ptr, ptr %3, align 8, !tbaa !8
  %5 = getelementptr inbounds nuw i8, ptr %0, i64 44
  %6 = load i32, ptr %5, align 4, !tbaa !8
  %.not = icmp eq i32 %6, 0
  br i1 %.not, label %8, label %7, !prof !75

7:                                                ; preds = %2
  tail call void @zend_wrong_parameters_none_error() #17
  br label %50

8:                                                ; preds = %2
  %9 = getelementptr inbounds i8, ptr %4, i64 -32
  %10 = load ptr, ptr %9, align 8, !tbaa !94
  %.not9 = icmp eq ptr %10, null
  br i1 %.not9, label %17, label %11

11:                                               ; preds = %8
  %12 = getelementptr inbounds i8, ptr %4, i64 -24
  %13 = load ptr, ptr %12, align 8, !tbaa !97
  %14 = getelementptr inbounds nuw i8, ptr %13, i64 16
  %15 = load i8, ptr %14, align 8, !tbaa !88, !range !55, !noundef !56
  %16 = trunc nuw i8 %15 to i1
  br i1 %16, label %20, label %17

17:                                               ; preds = %11, %8
  tail call void (ptr, ptr, ...) @zend_throw_error(ptr noundef null, ptr noundef nonnull @.str.42) #17
  %18 = load ptr, ptr getelementptr inbounds nuw (i8, ptr @executor_globals, i64 960), align 8, !tbaa !9
  %19 = icmp ne ptr %18, null
  tail call void @llvm.assume(i1 %19)
  br label %50

20:                                               ; preds = %11
  %21 = getelementptr inbounds i8, ptr %4, i64 -8
  %22 = load ptr, ptr %21, align 8, !tbaa !98
  %.not.i = icmp eq ptr %22, null
  br i1 %.not.i, label %sqlite3result_clear_column_names_cache.exit, label %.preheader.i

.preheader.i:                                     ; preds = %20
  %23 = getelementptr inbounds i8, ptr %4, i64 -12
  %24 = load i32, ptr %23, align 4, !tbaa !99
  %25 = icmp sgt i32 %24, 0
  br i1 %25, label %.lr.ph.i, label %._crit_edge.i

._crit_edge.loopexit.i:                           ; preds = %zend_string_release_ex.exit.i
  %.pre10.i = load ptr, ptr %21, align 8, !tbaa !98
  br label %._crit_edge.i

._crit_edge.i:                                    ; preds = %._crit_edge.loopexit.i, %.preheader.i
  %26 = phi ptr [ %.pre10.i, %._crit_edge.loopexit.i ], [ %22, %.preheader.i ]
  tail call void @_efree(ptr noundef %26) #17
  %.pre = load ptr, ptr %12, align 8, !tbaa !97
  br label %sqlite3result_clear_column_names_cache.exit

.lr.ph.i:                                         ; preds = %.preheader.i, %zend_string_release_ex.exit.i
  %27 = phi i32 [ %40, %zend_string_release_ex.exit.i ], [ %24, %.preheader.i ]
  %indvars.iv.i = phi i64 [ %indvars.iv.next.i, %zend_string_release_ex.exit.i ], [ 0, %.preheader.i ]
  %28 = load ptr, ptr %21, align 8, !tbaa !98
  %29 = getelementptr inbounds nuw ptr, ptr %28, i64 %indvars.iv.i
  %30 = load ptr, ptr %29, align 8, !tbaa !79
  %31 = getelementptr inbounds nuw i8, ptr %30, i64 4
  %32 = load i32, ptr %31, align 4, !tbaa !8
  %33 = and i32 %32, 64
  %.not.i.i = icmp eq i32 %33, 0
  br i1 %.not.i.i, label %34, label %zend_string_release_ex.exit.i

34:                                               ; preds = %.lr.ph.i
  %35 = load i32, ptr %30, align 4, !tbaa !70
  %36 = icmp ne i32 %35, 0
  tail call void @llvm.assume(i1 %36)
  %37 = add i32 %35, -1
  store i32 %37, ptr %30, align 4, !tbaa !70
  %38 = icmp eq i32 %37, 0
  br i1 %38, label %39, label %zend_string_release_ex.exit.i

39:                                               ; preds = %34
  tail call void @_efree(ptr noundef nonnull %30) #17
  %.pre.i = load i32, ptr %23, align 4, !tbaa !99
  br label %zend_string_release_ex.exit.i

zend_string_release_ex.exit.i:                    ; preds = %39, %34, %.lr.ph.i
  %40 = phi i32 [ %27, %.lr.ph.i ], [ %27, %34 ], [ %.pre.i, %39 ]
  %indvars.iv.next.i = add nuw nsw i64 %indvars.iv.i, 1
  %41 = sext i32 %40 to i64
  %42 = icmp slt i64 %indvars.iv.next.i, %41
  br i1 %42, label %.lr.ph.i, label %._crit_edge.loopexit.i

sqlite3result_clear_column_names_cache.exit:      ; preds = %20, %._crit_edge.i
  %43 = phi ptr [ %13, %20 ], [ %.pre, %._crit_edge.i ]
  store ptr null, ptr %21, align 8, !tbaa !98
  %44 = getelementptr inbounds i8, ptr %4, i64 -12
  store i32 -1, ptr %44, align 4, !tbaa !99
  %45 = load ptr, ptr %43, align 8, !tbaa !100
  %46 = tail call i32 @sqlite3_reset(ptr noundef %45) #17
  %.not10 = icmp eq i32 %46, 0
  %47 = getelementptr inbounds nuw i8, ptr %1, i64 8
  br i1 %.not10, label %49, label %48

48:                                               ; preds = %sqlite3result_clear_column_names_cache.exit
  store i32 2, ptr %47, align 8, !tbaa !8
  br label %50

49:                                               ; preds = %sqlite3result_clear_column_names_cache.exit
  store i32 3, ptr %47, align 8, !tbaa !8
  br label %50

50:                                               ; preds = %49, %48, %17, %7
  ret void
}